target datalayout = "e-m:e-p270:32:32-p271:32:32-p272:64:64-i64:64-i128:128-f80:128-n8:16:32:64-S128"
target triple = "x86_64-pc-linux-gnu"

%class.LogTagSet = type { ptr, i64, [5 x i32], [4 x i8], %class.LogOutputList, %class.LogDecorators, ptr }
%class.LogOutputList = type <{ [6 x ptr], i32, [4 x i8] }>
%class.LogDecorators = type { i32 }

@.str = private unnamed_addr constant [49 x i8] c"Method array size doesn't match class array size\00", align 1
@_ZL16_free_list_index = internal global i64 0, align 8
@_ZL10_free_list = internal global [4096 x i64] zeroinitializer, align 16
@_ZL9_elements = internal global [4096 x ptr] zeroinitializer, align 16
@_ZL6_index = internal global i64 0, align 8
@.str.4 = private unnamed_addr constant [55 x i8] c"Maximum number of @StackFrame in use has been reached.\00", align 1
@_ZN16LogTagSetMappingILN6LogTag4typeE64ELS1_0ELS1_0ELS1_0ELS1_0ELS1_0EE7_tagsetE = linkonce_odr hidden global %class.LogTagSet zeroinitializer, comdat, align 8

; Function Attrs: mustprogress nounwind uwtable
define linkonce_odr hidden noundef zeroext i1 @_ZNK13LogOutputList8is_levelEN8LogLevel4typeE(ptr noundef nonnull align 8 dereferenceable(52) %0, i32 noundef %1) #1 comdat align 2 {
  %3 = alloca ptr, align 8
  %4 = alloca i32, align 4
  store ptr %0, ptr %3, align 8
  store i32 %1, ptr %4, align 4
  %5 = load ptr, ptr %3, align 8
  %6 = getelementptr inbounds %class.LogOutputList, ptr %5, i32 0, i32 0
  %7 = load i32, ptr %4, align 4
  %8 = zext i32 %7 to i64
  %9 = getelementptr inbounds [6 x ptr], ptr %6, i64 0, i64 %8
  %10 = load volatile ptr, ptr %9, align 8
  %11 = icmp ne ptr %10, null
  ret i1 %11
}

; Function Attrs: mustprogress nounwind uwtable
define linkonce_odr hidden noundef zeroext i1 @_ZNK9LogTagSet8is_levelEN8LogLevel4typeE(ptr noundef nonnull align 8 dereferenceable(112) %0, i32 noundef %1) #1 comdat align 2 {
  %3 = alloca ptr, align 8
  %4 = alloca i32, align 4
  store ptr %0, ptr %3, align 8
  store i32 %1, ptr %4, align 4
  %5 = load ptr, ptr %3, align 8
  %6 = getelementptr inbounds %class.LogTagSet, ptr %5, i32 0, i32 4
  %7 = load i32, ptr %4, align 4
  %8 = call noundef zeroext i1 @_ZNK13LogOutputList8is_levelEN8LogLevel4typeE(ptr noundef nonnull align 8 dereferenceable(52) %6, i32 noundef %7)
  ret i1 %8
}

; Function Attrs: mustprogress nounwind uwtable
define linkonce_odr hidden noundef nonnull align 8 dereferenceable(112) ptr @_ZN16LogTagSetMappingILN6LogTag4typeE64ELS1_0ELS1_0ELS1_0ELS1_0ELS1_0EE6tagsetEv() #1 comdat align 2 {
  ret ptr @_ZN16LogTagSetMappingILN6LogTag4typeE64ELS1_0ELS1_0ELS1_0ELS1_0ELS1_0EE7_tagsetE
}

; Function Attrs: mustprogress nounwind uwtable
define linkonce_odr hidden noundef zeroext i1 @_ZN7LogImplILN6LogTag4typeE64ELS1_0ELS1_0ELS1_0ELS1_0ELS1_0EE8is_levelEN8LogLevel4typeE(i32 noundef %0) #1 comdat align 2 {
  %2 = alloca i32, align 4
  store i32 %0, ptr %2, align 4
  %3 = call noundef nonnull align 8 dereferenceable(112) ptr @_ZN16LogTagSetMappingILN6LogTag4typeE64ELS1_0ELS1_0ELS1_0ELS1_0ELS1_0EE6tagsetEv()
  %4 = load i32, ptr %2, align 4
  %5 = call noundef zeroext i1 @_ZNK9LogTagSet8is_levelEN8LogLevel4typeE(ptr noundef nonnull align 8 dereferenceable(112) %3, i32 noundef %4)
  ret i1 %5
}

; Function Attrs: mustprogress nounwind uwtable
define hidden noundef i64 @_ZN22JfrStackFilterRegistry3addEPK14JfrStackFilter(ptr noundef %0) #1 align 2 {
  %2 = alloca i64, align 8
  %3 = alloca ptr, align 8
  %4 = alloca i64, align 8
  store ptr %0, ptr %3, align 8
  %5 = load i64, ptr @_ZL16_free_list_index, align 8
  %6 = icmp sgt i64 %5, 0
  br i1 %6, label %7, label %18

7:                                                ; preds = %1
  %8 = load i64, ptr @_ZL16_free_list_index, align 8
  %9 = sub nsw i64 %8, 1
  %10 = getelementptr inbounds [4096 x i64], ptr @_ZL10_free_list, i64 0, i64 %9
  %11 = load i64, ptr %10, align 8
  store i64 %11, ptr %4, align 8
  %12 = load ptr, ptr %3, align 8
  %13 = load i64, ptr %4, align 8
  %14 = getelementptr inbounds [4096 x ptr], ptr @_ZL9_elements, i64 0, i64 %13
  store ptr %12, ptr %14, align 8
  %15 = load i64, ptr @_ZL16_free_list_index, align 8
  %16 = add nsw i64 %15, -1
  store i64 %16, ptr @_ZL16_free_list_index, align 8
  %17 = load i64, ptr %4, align 8
  store i64 %17, ptr %2, align 8
  br label %32

18:                                               ; preds = %1
  %19 = load i64, ptr @_ZL6_index, align 8
  %20 = icmp sge i64 %19, 4095
  br i1 %20, label %21, label %26

21:                                               ; preds = %18
  %22 = call noundef zeroext i1 @_ZN7LogImplILN6LogTag4typeE64ELS1_0ELS1_0ELS1_0ELS1_0ELS1_0EE8is_levelEN8LogLevel4typeE(i32 noundef 4)
  br i1 %22, label %24, label %23

23:                                               ; preds = %21
  br label %25

24:                                               ; preds = %21
  call void (ptr, ...) @_ZN7LogImplILN6LogTag4typeE64ELS1_0ELS1_0ELS1_0ELS1_0ELS1_0EE5writeILN8LogLevel4typeE4EEEvPKcz(ptr noundef @.str.4)
  br label %25

25:                                               ; preds = %24, %23
  store i64 -1, ptr %2, align 8
  br label %32

26:                                               ; preds = %18
  %27 = load ptr, ptr %3, align 8
  %28 = load i64, ptr @_ZL6_index, align 8
  %29 = getelementptr inbounds [4096 x ptr], ptr @_ZL9_elements, i64 0, i64 %28
  store ptr %27, ptr %29, align 8
  %30 = load i64, ptr @_ZL6_index, align 8
  %31 = add nsw i64 %30, 1
  store i64 %31, ptr @_ZL6_index, align 8
  store i64 %30, ptr %2, align 8
  br label %32

32:                                               ; preds = %26, %25, %7
  %33 = load i64, ptr %2, align 8
  ret i64 %33
}

; Function Attrs: mustprogress nounwind uwtable
define hidden noundef i64 @_ZN22JfrStackFilterRegistry3addEP13_jobjectArrayS1_P10JavaThread(ptr noundef %0, ptr noundef %1, ptr noundef %2) #1 align 2 {
  %4 = alloca i64, align 8
  %5 = alloca ptr, align 8
  %6 = alloca ptr, align 8
  %7 = alloca ptr, align 8
  %8 = alloca i64, align 8
  %9 = alloca ptr, align 8
  %10 = alloca i64, align 8
  %11 = alloca ptr, align 8
  %12 = alloca ptr, align 8
  store ptr %0, ptr %5, align 8
  store ptr %1, ptr %6, align 8
  store ptr %2, ptr %7, align 8
  store i64 0, ptr %8, align 8
  %13 = load ptr, ptr %5, align 8
  %14 = load ptr, ptr %7, align 8
  %15 = call noundef ptr @_ZN14JfrJavaSupport12symbol_arrayEP13_jobjectArrayP10JavaThreadPlb(ptr noundef %13, ptr noundef %14, ptr noundef %8, i1 noundef zeroext true)
  store ptr %15, ptr %9, align 8
  store i64 0, ptr %10, align 8
  %16 = load ptr, ptr %6, align 8
  %17 = load ptr, ptr %7, align 8
  %18 = call noundef ptr @_ZN14JfrJavaSupport12symbol_arrayEP13_jobjectArrayP10JavaThreadPlb(ptr noundef %16, ptr noundef %17, ptr noundef %10, i1 noundef zeroext true)
  store ptr %18, ptr %11, align 8
  %19 = load i64, ptr %8, align 8
  %20 = load i64, ptr %10, align 8
  %21 = icmp ne i64 %19, %20
  br i1 %21, label %22, label %26

22:                                               ; preds = %3
  %23 = load ptr, ptr %9, align 8
  call void @_Z8FreeHeapPv(ptr noundef %23)
  %24 = load ptr, ptr %11, align 8
  call void @_Z8FreeHeapPv(ptr noundef %24)
  %25 = load ptr, ptr %7, align 8
  call void @_ZN14JfrJavaSupport20throw_internal_errorEPKcP10JavaThread(ptr noundef @.str, ptr noundef %25)
  store i64 -1, ptr %4, align 8
  br label %37

26:                                               ; preds = %3
  %27 = call noundef ptr @_ZN11JfrCHeapObjnwEm(i64 noundef 24) #5
  %28 = icmp eq ptr %27, null
  br i1 %28, label %33, label %29

29:                                               ; preds = %26
  %30 = load ptr, ptr %9, align 8
  %31 = load ptr, ptr %11, align 8
  %32 = load i64, ptr %8, align 8
  call void @_ZN14JfrStackFilterC1EPP6SymbolS2_m(ptr noundef nonnull align 8 dereferenceable(24) %27, ptr noundef %30, ptr noundef %31, i64 noundef %32)
  br label %33

33:                                               ; preds = %29, %26
  %34 = phi ptr [ %27, %29 ], [ null, %26 ]
  store ptr %34, ptr %12, align 8
  %35 = load ptr, ptr %12, align 8
  %36 = call noundef i64 @_ZN22JfrStackFilterRegistry3addEPK14JfrStackFilter(ptr noundef %35)
  store i64 %36, ptr %4, align 8
  br label %37

37:                                               ; preds = %33, %22
  %38 = load i64, ptr %4, align 8
  ret i64 %38
}