; Function Attrs: mustprogress nounwind uwtable
define hidden noundef i64 @_ZN22JfrStackFilterRegistry3addEP13_jobjectArrayS1_P10JavaThread(ptr noundef %0, ptr noundef %1, ptr noundef %2) local_unnamed_addr #0 align 2 {
  %4 = alloca i64, align 8
  %5 = alloca i64, align 8
  store i64 0, ptr %4, align 8
  %6 = call noundef ptr @_ZN14JfrJavaSupport12symbol_arrayEP13_jobjectArrayP10JavaThreadPlb(ptr noundef %0, ptr noundef %2, ptr noundef nonnull %4, i1 noundef zeroext true) #6
  store i64 0, ptr %5, align 8
  %7 = call noundef ptr @_ZN14JfrJavaSupport12symbol_arrayEP13_jobjectArrayP10JavaThreadPlb(ptr noundef %1, ptr noundef %2, ptr noundef nonnull %5, i1 noundef zeroext true) #6
  %8 = load i64, ptr %4, align 8
  %9 = load i64, ptr %5, align 8
  %.not = icmp eq i64 %8, %9
  br i1 %.not, label %11, label %10

10:                                               ; preds = %3
  call void @_Z8FreeHeapPv(ptr noundef %6) #6
  call void @_Z8FreeHeapPv(ptr noundef %7) #6
  call void @_ZN14JfrJavaSupport20throw_internal_errorEPKcP10JavaThread(ptr noundef nonnull @.str, ptr noundef %2) #6
  br label %_ZN22JfrStackFilterRegistry3addEPK14JfrStackFilter.exit

11:                                               ; preds = %3
  %12 = call noundef ptr @_ZN11JfrCHeapObjnwEm(i64 noundef 24) #6
  %13 = icmp eq ptr %12, null
  br i1 %13, label %16, label %14

14:                                               ; preds = %11
  %15 = load i64, ptr %4, align 8
  call void @_ZN14JfrStackFilterC1EPP6SymbolS2_m(ptr noundef nonnull align 8 dereferenceable(24) %12, ptr noundef %6, ptr noundef %7, i64 noundef %15) #6
  br label %16

16:                                               ; preds = %14, %11
  %17 = load i64, ptr @_ZL16_free_list_index, align 8
  %18 = icmp sgt i64 %17, 0
  br i1 %18, label %19, label %24

19:                                               ; preds = %16
  %20 = add nsw i64 %17, -1
  %21 = getelementptr inbounds [4096 x i64], ptr @_ZL10_free_list, i64 0, i64 %20
  %22 = load i64, ptr %21, align 8
  %23 = getelementptr inbounds [4096 x ptr], ptr @_ZL9_elements, i64 0, i64 %22
  store ptr %12, ptr %23, align 8
  store i64 %20, ptr @_ZL16_free_list_index, align 8
  br label %_ZN22JfrStackFilterRegistry3addEPK14JfrStackFilter.exit

24:                                               ; preds = %16
  %25 = load i64, ptr @_ZL6_index, align 8
  %26 = icmp sgt i64 %25, 4094
  br i1 %26, label %27, label %30

27:                                               ; preds = %24
  %28 = load volatile ptr, ptr getelementptr inbounds (i8, ptr @_ZN16LogTagSetMappingILN6LogTag4typeE64ELS1_0ELS1_0ELS1_0ELS1_0ELS1_0EE7_tagsetE, i64 72), align 8
  %.not.i = icmp eq ptr %28, null
  br i1 %.not.i, label %_ZN22JfrStackFilterRegistry3addEPK14JfrStackFilter.exit, label %29

29:                                               ; preds = %27
  call void (ptr, ...) @_ZN7LogImplILN6LogTag4typeE64ELS1_0ELS1_0ELS1_0ELS1_0ELS1_0EE5writeILN8LogLevel4typeE4EEEvPKcz(ptr noundef nonnull @.str.4)
  br label %_ZN22JfrStackFilterRegistry3addEPK14JfrStackFilter.exit

30:                                               ; preds = %24
  %31 = getelementptr inbounds [4096 x ptr], ptr @_ZL9_elements, i64 0, i64 %25
  store ptr %12, ptr %31, align 8
  %32 = add nsw i64 %25, 1
  store i64 %32, ptr @_ZL6_index, align 8
  br label %_ZN22JfrStackFilterRegistry3addEPK14JfrStackFilter.exit

_ZN22JfrStackFilterRegistry3addEPK14JfrStackFilter.exit: ; preds = %30, %29, %27, %19, %10
  %.0 = phi i64 [ -1, %10 ], [ %22, %19 ], [ %25, %30 ], [ -1, %27 ], [ -1, %29 ]
  ret i64 %.0
}